; Function Attrs: nounwind uwtable
define void @Abc_ObjPrintNeighborhood(ptr noundef %0, i32 noundef %1) local_unnamed_addr #0 {
  %3 = tail call noalias dereferenceable_or_null(16) ptr @malloc(i64 noundef 16) #17
  %4 = getelementptr inbounds nuw i8, ptr %3, i64 4
  store i32 0, ptr %4, align 4, !tbaa !25
  store i32 100, ptr %3, align 8, !tbaa !27
  %5 = tail call noalias dereferenceable_or_null(800) ptr @malloc(i64 noundef 800) #17
  %6 = getelementptr inbounds nuw i8, ptr %3, i64 8
  store ptr %5, ptr %6, align 8, !tbaa !28
  tail call fastcc void @Abc_ObjPrintNeighborhood_rec(ptr noundef %0, ptr noundef nonnull %3, i32 noundef %1)
  %.val6 = load i32, ptr %4, align 4, !tbaa !25
  %.not7 = icmp eq i32 %.val6, 0
  br i1 %.not7, label %._crit_edge, label %.lr.ph

.lr.ph:                                           ; preds = %2, %.lr.ph
  %.val8 = phi i32 [ %.val, %.lr.ph ], [ %.val6, %2 ]
  %7 = load ptr, ptr %6, align 8, !tbaa !28
  %8 = add nsw i32 %.val8, -1
  store i32 %8, ptr %4, align 4, !tbaa !25
  %9 = sext i32 %8 to i64
  %10 = getelementptr inbounds ptr, ptr %7, i64 %9
  %11 = load ptr, ptr %10, align 8, !tbaa !51
  %12 = getelementptr inbounds nuw i8, ptr %11, i64 20
  %13 = load i32, ptr %12, align 4
  %14 = and i32 %13, -65
  store i32 %14, ptr %12, align 4
  %.val = load i32, ptr %4, align 4, !tbaa !25
  %.not = icmp eq i32 %.val, 0
  br i1 %.not, label %._crit_edge, label %.lr.ph, !llvm.loop !125

._crit_edge:                                      ; preds = %.lr.ph, %2
  %15 = load ptr, ptr %6, align 8, !tbaa !28
  %.not.i = icmp eq ptr %15, null
  br i1 %.not.i, label %Vec_PtrFree.exit, label %16

16:                                               ; preds = %._crit_edge
  tail call void @free(ptr noundef nonnull %15) #18
  br label %Vec_PtrFree.exit

Vec_PtrFree.exit:                                 ; preds = %._crit_edge, %16
  tail call void @free(ptr noundef nonnull %3) #18
  ret void
}